; Function Attrs: nounwind uwtable
define dso_local void @gencontext_print_llvm_ir(ptr nocapture noundef readonly %0) local_unnamed_addr #0 {
  %2 = alloca ptr, align 8
  store ptr null, ptr %2, align 8
  %3 = getelementptr inbounds i8, ptr %0, i64 8
  %4 = load ptr, ptr %3, align 8
  %5 = getelementptr inbounds i8, ptr %0, i64 128
  %6 = load ptr, ptr %5, align 8
  %7 = call i32 @LLVMPrintModuleToFile(ptr noundef %4, ptr noundef %6, ptr noundef nonnull %2) #10
  %.not = icmp eq i32 %7, 0
  br i1 %.not, label %10, label %8

8:                                                ; preds = %1
  %9 = load ptr, ptr %2, align 8
  call void (ptr, ...) @error_exit(ptr noundef nonnull @.str.11, ptr noundef %9) #12
  unreachable

10:                                               ; preds = %1
  ret void
}